target datalayout = "e-m:e-p270:32:32-p271:32:32-p272:64:64-i64:64-i128:128-f80:128-n8:16:32:64-S128"
target triple = "x86_64-pc-linux-gnu"

%struct.png_struct_def = type { [1 x %struct.__jmp_buf_tag], ptr, ptr, i64, ptr, ptr, ptr, ptr, ptr, ptr, ptr, ptr, i8, i8, i32, i32, i32, i32, %struct.z_stream_s, i32, i32, i32, i32, i64, i32, i32, i32, ptr, ptr, i64, i32, i32, ptr, i16, i32, i16, i8, i8, i8, i8, i8, i8, i8, i8, i8, i8, i8, i8, i8, i8, i16, i8, i32, %struct.png_color_16_struct, %struct.png_color_16_struct, i32, i32, ptr, ptr, ptr, ptr, ptr, ptr, %struct.png_color_8_struct, %struct.png_color_8_struct, ptr, %struct.png_color_16_struct, ptr, ptr, ptr, ptr, ptr, ptr, ptr, ptr, ptr, i32, i32, i64, i64, i64, i64, i32, i32, ptr, ptr, [29 x i8], i32, ptr, ptr, i32, i32, ptr, i8, i8, i16, i16, ptr, i32, i8, ptr, ptr, ptr, ptr, ptr, ptr, ptr, i8, i32, i32, i32, i64, %struct.png_unknown_chunk_t, i64, ptr, i64, i32, i32, ptr, [4 x ptr], %struct.png_colorspace }
%struct.__jmp_buf_tag = type { [8 x i64], i32, %struct.__sigset_t }
%struct.__sigset_t = type { [16 x i64] }
%struct.z_stream_s = type { ptr, i32, i64, ptr, i32, i64, ptr, ptr, ptr, ptr, ptr, i32, i64, i64 }
%struct.png_color_8_struct = type { i8, i8, i8, i8, i8 }
%struct.png_color_16_struct = type { i8, i16, i16, i16, i16 }
%struct.png_unknown_chunk_t = type { [5 x i8], ptr, i64, i8 }
%struct.png_colorspace = type { i32, %struct.png_xy, %struct.png_XYZ, i16, i16 }
%struct.png_xy = type { i32, i32, i32, i32, i32, i32, i32, i32 }
%struct.png_XYZ = type { i32, i32, i32, i32, i32, i32, i32, i32, i32 }
%struct.png_info_def = type { i32, i32, i32, i64, ptr, i16, i16, i8, i8, i8, i8, i8, i8, i8, i8, [8 x i8], %struct.png_colorspace, ptr, ptr, i32, i32, i32, ptr, %struct.png_time_struct, %struct.png_color_8_struct, ptr, %struct.png_color_16_struct, %struct.png_color_16_struct, i32, i32, i8, i32, i32, i8, ptr, ptr, i32, i32, ptr, ptr, i8, i8, i32, ptr, i32, ptr, i32, i8, ptr, ptr, ptr }
%struct.png_time_struct = type { i16, i8, i8, i8, i8, i8 }

@.str.1 = private unnamed_addr constant [15 x i8] c"Not a PNG file\00", align 1
@.str.2 = private unnamed_addr constant [39 x i8] c"PNG file corrupted by ASCII conversion\00", align 1

; Function Attrs: nounwind uwtable
define hidden void @png_read_sig(ptr noalias noundef %0, ptr noalias noundef %1) #0 {
  %3 = alloca ptr, align 8
  %4 = alloca ptr, align 8
  %5 = alloca i64, align 8
  %6 = alloca i64, align 8
  store ptr %0, ptr %3, align 8
  store ptr %1, ptr %4, align 8
  %7 = load ptr, ptr %3, align 8
  %8 = getelementptr inbounds %struct.png_struct_def, ptr %7, i32 0, i32 46
  %9 = load i8, ptr %8, align 4
  %10 = zext i8 %9 to i32
  %11 = icmp sge i32 %10, 8
  br i1 %11, label %12, label %13

12:                                               ; preds = %2
  br label %61

13:                                               ; preds = %2
  %14 = load ptr, ptr %3, align 8
  %15 = getelementptr inbounds %struct.png_struct_def, ptr %14, i32 0, i32 46
  %16 = load i8, ptr %15, align 4
  %17 = zext i8 %16 to i64
  store i64 %17, ptr %5, align 8
  %18 = load i64, ptr %5, align 8
  %19 = sub i64 8, %18
  store i64 %19, ptr %6, align 8
  %20 = load ptr, ptr %3, align 8
  %21 = getelementptr inbounds %struct.png_struct_def, ptr %20, i32 0, i32 117
  store i32 17, ptr %21, align 4
  %22 = load ptr, ptr %3, align 8
  %23 = load ptr, ptr %4, align 8
  %24 = getelementptr inbounds %struct.png_info_def, ptr %23, i32 0, i32 15
  %25 = load i64, ptr %5, align 8
  %26 = getelementptr inbounds [8 x i8], ptr %24, i64 0, i64 %25
  %27 = load i64, ptr %6, align 8
  call void @png_read_data(ptr noundef %22, ptr noundef %26, i64 noundef %27)
  %28 = load ptr, ptr %3, align 8
  %29 = getelementptr inbounds %struct.png_struct_def, ptr %28, i32 0, i32 46
  store i8 8, ptr %29, align 4
  %30 = load ptr, ptr %4, align 8
  %31 = getelementptr inbounds %struct.png_info_def, ptr %30, i32 0, i32 15
  %32 = getelementptr inbounds [8 x i8], ptr %31, i64 0, i64 0
  %33 = load i64, ptr %5, align 8
  %34 = load i64, ptr %6, align 8
  %35 = call i32 @png_sig_cmp(ptr noundef %32, i64 noundef %33, i64 noundef %34)
  %36 = icmp ne i32 %35, 0
  br i1 %36, label %37, label %53

37:                                               ; preds = %13
  %38 = load i64, ptr %5, align 8
  %39 = icmp ult i64 %38, 4
  br i1 %39, label %40, label %51

40:                                               ; preds = %37
  %41 = load ptr, ptr %4, align 8
  %42 = getelementptr inbounds %struct.png_info_def, ptr %41, i32 0, i32 15
  %43 = getelementptr inbounds [8 x i8], ptr %42, i64 0, i64 0
  %44 = load i64, ptr %5, align 8
  %45 = load i64, ptr %6, align 8
  %46 = sub i64 %45, 4
  %47 = call i32 @png_sig_cmp(ptr noundef %43, i64 noundef %44, i64 noundef %46)
  %48 = icmp ne i32 %47, 0
  br i1 %48, label %49, label %51

49:                                               ; preds = %40
  %50 = load ptr, ptr %3, align 8
  call void @png_error(ptr noundef %50, ptr noundef @.str.1) #6
  unreachable

51:                                               ; preds = %40, %37
  %52 = load ptr, ptr %3, align 8
  call void @png_error(ptr noundef %52, ptr noundef @.str.2) #6
  unreachable

53:                                               ; preds = %13
  %54 = load i64, ptr %5, align 8
  %55 = icmp ult i64 %54, 3
  br i1 %55, label %56, label %61

56:                                               ; preds = %53
  %57 = load ptr, ptr %3, align 8
  %58 = getelementptr inbounds %struct.png_struct_def, ptr %57, i32 0, i32 14
  %59 = load i32, ptr %58, align 4
  %60 = or i32 %59, 4096
  store i32 %60, ptr %58, align 4
  br label %61

61:                                               ; preds = %56, %53, %12
  ret void
}