; Function Attrs: nounwind uwtable
define hidden void @png_read_sig(ptr noalias noundef %0, ptr noalias noundef %1) local_unnamed_addr #0 {
  %3 = getelementptr inbounds i8, ptr %0, i64 524
  %4 = load i8, ptr %3, align 4
  %5 = icmp ugt i8 %4, 7
  br i1 %5, label %26, label %6

6:                                                ; preds = %2
  %7 = zext nneg i8 %4 to i64
  %8 = sub nuw nsw i64 8, %7
  %9 = getelementptr inbounds i8, ptr %0, i64 1028
  store i32 17, ptr %9, align 4
  %10 = getelementptr inbounds i8, ptr %1, i64 44
  %11 = getelementptr inbounds [8 x i8], ptr %10, i64 0, i64 %7
  tail call void @png_read_data(ptr noundef nonnull %0, ptr noundef nonnull %11, i64 noundef %8) #12
  store i8 8, ptr %3, align 4
  %12 = tail call i32 @png_sig_cmp(ptr noundef nonnull %10, i64 noundef %7, i64 noundef %8) #12
  %.not = icmp eq i32 %12, 0
  br i1 %.not, label %20, label %13

13:                                               ; preds = %6
  %14 = icmp ult i8 %4, 4
  br i1 %14, label %15, label %19

15:                                               ; preds = %13
  %16 = sub nuw nsw i64 4, %7
  %17 = tail call i32 @png_sig_cmp(ptr noundef nonnull %10, i64 noundef %7, i64 noundef %16) #12
  %.not19 = icmp eq i32 %17, 0
  br i1 %.not19, label %19, label %18

18:                                               ; preds = %15
  tail call void @png_error(ptr noundef nonnull %0, ptr noundef nonnull @.str.1) #11
  unreachable

19:                                               ; preds = %15, %13
  tail call void @png_error(ptr noundef nonnull %0, ptr noundef nonnull @.str.2) #11
  unreachable

20:                                               ; preds = %6
  %21 = icmp ult i8 %4, 3
  br i1 %21, label %22, label %26

22:                                               ; preds = %20
  %23 = getelementptr inbounds i8, ptr %0, i64 292
  %24 = load i32, ptr %23, align 4
  %25 = or i32 %24, 4096
  store i32 %25, ptr %23, align 4
  br label %26

26:                                               ; preds = %2, %22, %20
  ret void
}